target datalayout = "e-m:e-p270:32:32-p271:32:32-p272:64:64-i64:64-i128:128-f80:128-n8:16:32:64-S128"
target triple = "x86_64-pc-linux-gnu"

%struct._timelib_time = type { i64, i64, i64, i64, i64, i64, i64, i32, ptr, ptr, i32, %struct._timelib_rel_time, i64, i32, i32, i32, i32, i32, i32, i32, i32, i32 }
%struct._timelib_rel_time = type { i64, i64, i64, i64, i64, i64, i64, i32, i32, i32, i32, i64, %struct.anon, i32, i32 }
%struct.anon = type { i32, i64 }
%struct._timelib_time_offset = type { i32, i32, i32, ptr, i64 }

; Function Attrs: nounwind uwtable
define hidden void @timelib_unixtime2date(i64 noundef %0, ptr noundef %1, ptr noundef %2, ptr noundef %3) #0 {
  %5 = alloca i64, align 8
  %6 = alloca ptr, align 8
  %7 = alloca ptr, align 8
  %8 = alloca ptr, align 8
  %9 = alloca i64, align 8
  %10 = alloca i64, align 8
  %11 = alloca i64, align 8
  %12 = alloca i64, align 8
  %13 = alloca i64, align 8
  %14 = alloca i64, align 8
  %15 = alloca i64, align 8
  store i64 %0, ptr %5, align 8, !tbaa !4
  store ptr %1, ptr %6, align 8, !tbaa !8
  store ptr %2, ptr %7, align 8, !tbaa !8
  store ptr %3, ptr %8, align 8, !tbaa !8
  call void @llvm.lifetime.start.p0(i64 8, ptr %9) #3
  call void @llvm.lifetime.start.p0(i64 8, ptr %10) #3
  call void @llvm.lifetime.start.p0(i64 8, ptr %11) #3
  call void @llvm.lifetime.start.p0(i64 8, ptr %12) #3
  call void @llvm.lifetime.start.p0(i64 8, ptr %13) #3
  call void @llvm.lifetime.start.p0(i64 8, ptr %14) #3
  call void @llvm.lifetime.start.p0(i64 8, ptr %15) #3
  %16 = load i64, ptr %5, align 8, !tbaa !4
  %17 = sdiv i64 %16, 86400
  %18 = add i64 %17, 719468
  store i64 %18, ptr %9, align 8, !tbaa !4
  %19 = load i64, ptr %5, align 8, !tbaa !4
  %20 = srem i64 %19, 86400
  store i64 %20, ptr %11, align 8, !tbaa !4
  %21 = load i64, ptr %11, align 8, !tbaa !4
  %22 = icmp slt i64 %21, 0
  %23 = select i1 %22, i32 -1, i32 0
  %24 = sext i32 %23 to i64
  %25 = load i64, ptr %9, align 8, !tbaa !4
  %26 = add i64 %25, %24
  store i64 %26, ptr %9, align 8, !tbaa !4
  %27 = load i64, ptr %9, align 8, !tbaa !4
  %28 = icmp sge i64 %27, 0
  br i1 %28, label %29, label %31

29:                                               ; preds = %4
  %30 = load i64, ptr %9, align 8, !tbaa !4
  br label %35

31:                                               ; preds = %4
  %32 = load i64, ptr %9, align 8, !tbaa !4
  %33 = sub i64 %32, 146097
  %34 = add i64 %33, 1
  br label %35

35:                                               ; preds = %31, %29
  %36 = phi i64 [ %30, %29 ], [ %34, %31 ]
  %37 = sdiv i64 %36, 146097
  store i64 %37, ptr %10, align 8, !tbaa !4
  %38 = load i64, ptr %9, align 8, !tbaa !4
  %39 = load i64, ptr %10, align 8, !tbaa !4
  %40 = mul i64 %39, 146097
  %41 = sub i64 %38, %40
  store i64 %41, ptr %12, align 8, !tbaa !4
  %42 = load i64, ptr %12, align 8, !tbaa !4
  %43 = load i64, ptr %12, align 8, !tbaa !4
  %44 = udiv i64 %43, 1460
  %45 = sub i64 %42, %44
  %46 = load i64, ptr %12, align 8, !tbaa !4
  %47 = udiv i64 %46, 36524
  %48 = add i64 %45, %47
  %49 = load i64, ptr %12, align 8, !tbaa !4
  %50 = udiv i64 %49, 146096
  %51 = sub i64 %48, %50
  %52 = udiv i64 %51, 365
  store i64 %52, ptr %13, align 8, !tbaa !4
  %53 = load i64, ptr %13, align 8, !tbaa !4
  %54 = load i64, ptr %10, align 8, !tbaa !4
  %55 = mul i64 %54, 400
  %56 = add i64 %53, %55
  %57 = load ptr, ptr %6, align 8, !tbaa !8
  store i64 %56, ptr %57, align 8, !tbaa !4
  %58 = load i64, ptr %12, align 8, !tbaa !4
  %59 = load i64, ptr %13, align 8, !tbaa !4
  %60 = mul i64 365, %59
  %61 = load i64, ptr %13, align 8, !tbaa !4
  %62 = udiv i64 %61, 4
  %63 = add i64 %60, %62
  %64 = load i64, ptr %13, align 8, !tbaa !4
  %65 = udiv i64 %64, 100
  %66 = sub i64 %63, %65
  %67 = sub i64 %58, %66
  store i64 %67, ptr %14, align 8, !tbaa !4
  %68 = load i64, ptr %14, align 8, !tbaa !4
  %69 = mul i64 5, %68
  %70 = add i64 %69, 2
  %71 = udiv i64 %70, 153
  store i64 %71, ptr %15, align 8, !tbaa !4
  %72 = load i64, ptr %14, align 8, !tbaa !4
  %73 = load i64, ptr %15, align 8, !tbaa !4
  %74 = mul i64 153, %73
  %75 = add i64 %74, 2
  %76 = udiv i64 %75, 5
  %77 = sub i64 %72, %76
  %78 = add i64 %77, 1
  %79 = load ptr, ptr %8, align 8, !tbaa !8
  store i64 %78, ptr %79, align 8, !tbaa !4
  %80 = load i64, ptr %15, align 8, !tbaa !4
  %81 = load i64, ptr %15, align 8, !tbaa !4
  %82 = icmp ult i64 %81, 10
  %83 = select i1 %82, i32 3, i32 -9
  %84 = sext i32 %83 to i64
  %85 = add i64 %80, %84
  %86 = load ptr, ptr %7, align 8, !tbaa !8
  store i64 %85, ptr %86, align 8, !tbaa !4
  %87 = load ptr, ptr %7, align 8, !tbaa !8
  %88 = load i64, ptr %87, align 8, !tbaa !4
  %89 = icmp sle i64 %88, 2
  %90 = zext i1 %89 to i32
  %91 = sext i32 %90 to i64
  %92 = load ptr, ptr %6, align 8, !tbaa !8
  %93 = load i64, ptr %92, align 8, !tbaa !4
  %94 = add i64 %93, %91
  store i64 %94, ptr %92, align 8, !tbaa !4
  call void @llvm.lifetime.end.p0(i64 8, ptr %15) #3
  call void @llvm.lifetime.end.p0(i64 8, ptr %14) #3
  call void @llvm.lifetime.end.p0(i64 8, ptr %13) #3
  call void @llvm.lifetime.end.p0(i64 8, ptr %12) #3
  call void @llvm.lifetime.end.p0(i64 8, ptr %11) #3
  call void @llvm.lifetime.end.p0(i64 8, ptr %10) #3
  call void @llvm.lifetime.end.p0(i64 8, ptr %9) #3
  ret void
}

; Function Attrs: nounwind uwtable
define hidden void @timelib_unixtime2gmt(ptr noundef %0, i64 noundef %1) #0 {
  %3 = alloca ptr, align 8
  %4 = alloca i64, align 8
  %5 = alloca i64, align 8
  %6 = alloca i64, align 8
  %7 = alloca i64, align 8
  %8 = alloca i64, align 8
  store ptr %0, ptr %3, align 8, !tbaa !11
  store i64 %1, ptr %4, align 8, !tbaa !4
  call void @llvm.lifetime.start.p0(i64 8, ptr %5) #3
  call void @llvm.lifetime.start.p0(i64 8, ptr %6) #3
  call void @llvm.lifetime.start.p0(i64 8, ptr %7) #3
  call void @llvm.lifetime.start.p0(i64 8, ptr %8) #3
  %9 = load i64, ptr %4, align 8, !tbaa !4
  %10 = load ptr, ptr %3, align 8, !tbaa !11
  %11 = getelementptr inbounds nuw %struct._timelib_time, ptr %10, i32 0, i32 0
  %12 = load ptr, ptr %3, align 8, !tbaa !11
  %13 = getelementptr inbounds nuw %struct._timelib_time, ptr %12, i32 0, i32 1
  %14 = load ptr, ptr %3, align 8, !tbaa !11
  %15 = getelementptr inbounds nuw %struct._timelib_time, ptr %14, i32 0, i32 2
  call void @timelib_unixtime2date(i64 noundef %9, ptr noundef %11, ptr noundef %13, ptr noundef %15)
  %16 = load i64, ptr %4, align 8, !tbaa !4
  %17 = srem i64 %16, 86400
  store i64 %17, ptr %5, align 8, !tbaa !4
  %18 = load i64, ptr %5, align 8, !tbaa !4
  %19 = icmp slt i64 %18, 0
  %20 = zext i1 %19 to i32
  %21 = mul i32 %20, 86400
  %22 = sext i32 %21 to i64
  %23 = load i64, ptr %5, align 8, !tbaa !4
  %24 = add i64 %23, %22
  store i64 %24, ptr %5, align 8, !tbaa !4
  %25 = load i64, ptr %5, align 8, !tbaa !4
  %26 = sdiv i64 %25, 3600
  store i64 %26, ptr %6, align 8, !tbaa !4
  %27 = load i64, ptr %5, align 8, !tbaa !4
  %28 = load i64, ptr %6, align 8, !tbaa !4
  %29 = mul i64 %28, 3600
  %30 = sub i64 %27, %29
  %31 = sdiv i64 %30, 60
  store i64 %31, ptr %7, align 8, !tbaa !4
  %32 = load i64, ptr %5, align 8, !tbaa !4
  %33 = srem i64 %32, 60
  store i64 %33, ptr %8, align 8, !tbaa !4
  %34 = load i64, ptr %6, align 8, !tbaa !4
  %35 = load ptr, ptr %3, align 8, !tbaa !11
  %36 = getelementptr inbounds nuw %struct._timelib_time, ptr %35, i32 0, i32 3
  store i64 %34, ptr %36, align 8, !tbaa !13
  %37 = load i64, ptr %7, align 8, !tbaa !4
  %38 = load ptr, ptr %3, align 8, !tbaa !11
  %39 = getelementptr inbounds nuw %struct._timelib_time, ptr %38, i32 0, i32 4
  store i64 %37, ptr %39, align 8, !tbaa !20
  %40 = load i64, ptr %8, align 8, !tbaa !4
  %41 = load ptr, ptr %3, align 8, !tbaa !11
  %42 = getelementptr inbounds nuw %struct._timelib_time, ptr %41, i32 0, i32 5
  store i64 %40, ptr %42, align 8, !tbaa !21
  %43 = load ptr, ptr %3, align 8, !tbaa !11
  %44 = getelementptr inbounds nuw %struct._timelib_time, ptr %43, i32 0, i32 7
  store i32 0, ptr %44, align 8, !tbaa !22
  %45 = load ptr, ptr %3, align 8, !tbaa !11
  %46 = getelementptr inbounds nuw %struct._timelib_time, ptr %45, i32 0, i32 10
  store i32 0, ptr %46, align 8, !tbaa !23
  %47 = load i64, ptr %4, align 8, !tbaa !4
  %48 = load ptr, ptr %3, align 8, !tbaa !11
  %49 = getelementptr inbounds nuw %struct._timelib_time, ptr %48, i32 0, i32 12
  store i64 %47, ptr %49, align 8, !tbaa !24
  %50 = load ptr, ptr %3, align 8, !tbaa !11
  %51 = getelementptr inbounds nuw %struct._timelib_time, ptr %50, i32 0, i32 18
  store i32 1, ptr %51, align 4, !tbaa !25
  %52 = load ptr, ptr %3, align 8, !tbaa !11
  %53 = getelementptr inbounds nuw %struct._timelib_time, ptr %52, i32 0, i32 19
  store i32 1, ptr %53, align 8, !tbaa !26
  %54 = load ptr, ptr %3, align 8, !tbaa !11
  %55 = getelementptr inbounds nuw %struct._timelib_time, ptr %54, i32 0, i32 20
  store i32 0, ptr %55, align 4, !tbaa !27
  call void @llvm.lifetime.end.p0(i64 8, ptr %8) #3
  call void @llvm.lifetime.end.p0(i64 8, ptr %7) #3
  call void @llvm.lifetime.end.p0(i64 8, ptr %6) #3
  call void @llvm.lifetime.end.p0(i64 8, ptr %5) #3
  ret void
}

; Function Attrs: nounwind uwtable
define hidden void @timelib_unixtime2local(ptr noundef %0, i64 noundef %1) #0 {
  %3 = alloca ptr, align 8
  %4 = alloca i64, align 8
  %5 = alloca ptr, align 8
  %6 = alloca ptr, align 8
  %7 = alloca i32, align 4
  %8 = alloca i32, align 4
  %9 = alloca i32, align 4
  store ptr %0, ptr %3, align 8, !tbaa !11
  store i64 %1, ptr %4, align 8, !tbaa !4
  call void @llvm.lifetime.start.p0(i64 8, ptr %5) #3
  call void @llvm.lifetime.start.p0(i64 8, ptr %6) #3
  %10 = load ptr, ptr %3, align 8, !tbaa !11
  %11 = getelementptr inbounds nuw %struct._timelib_time, ptr %10, i32 0, i32 9
  %12 = load ptr, ptr %11, align 8, !tbaa !30
  store ptr %12, ptr %6, align 8, !tbaa !32
  %13 = load ptr, ptr %3, align 8, !tbaa !11
  %14 = getelementptr inbounds nuw %struct._timelib_time, ptr %13, i32 0, i32 21
  %15 = load i32, ptr %14, align 8, !tbaa !29
  switch i32 %15, label %77 [
    i32 2, label %16
    i32 1, label %16
    i32 3, label %45
  ]

16:                                               ; preds = %2, %2
  call void @llvm.lifetime.start.p0(i64 4, ptr %7) #3
  %17 = load ptr, ptr %3, align 8, !tbaa !11
  %18 = getelementptr inbounds nuw %struct._timelib_time, ptr %17, i32 0, i32 7
  %19 = load i32, ptr %18, align 8, !tbaa !22
  store i32 %19, ptr %7, align 4, !tbaa !28
  call void @llvm.lifetime.start.p0(i64 4, ptr %8) #3
  %20 = load ptr, ptr %3, align 8, !tbaa !11
  %21 = getelementptr inbounds nuw %struct._timelib_time, ptr %20, i32 0, i32 10
  %22 = load i32, ptr %21, align 8, !tbaa !23
  store i32 %22, ptr %8, align 4, !tbaa !28
  %23 = load ptr, ptr %3, align 8, !tbaa !11
  %24 = load i64, ptr %4, align 8, !tbaa !4
  %25 = load ptr, ptr %3, align 8, !tbaa !11
  %26 = getelementptr inbounds nuw %struct._timelib_time, ptr %25, i32 0, i32 7
  %27 = load i32, ptr %26, align 8, !tbaa !22
  %28 = sext i32 %27 to i64
  %29 = add i64 %24, %28
  %30 = load ptr, ptr %3, align 8, !tbaa !11
  %31 = getelementptr inbounds nuw %struct._timelib_time, ptr %30, i32 0, i32 10
  %32 = load i32, ptr %31, align 8, !tbaa !23
  %33 = mul i32 %32, 3600
  %34 = sext i32 %33 to i64
  %35 = add i64 %29, %34
  call void @timelib_unixtime2gmt(ptr noundef %23, i64 noundef %35)
  %36 = load i64, ptr %4, align 8, !tbaa !4
  %37 = load ptr, ptr %3, align 8, !tbaa !11
  %38 = getelementptr inbounds nuw %struct._timelib_time, ptr %37, i32 0, i32 12
  store i64 %36, ptr %38, align 8, !tbaa !24
  %39 = load i32, ptr %7, align 4, !tbaa !28
  %40 = load ptr, ptr %3, align 8, !tbaa !11
  %41 = getelementptr inbounds nuw %struct._timelib_time, ptr %40, i32 0, i32 7
  store i32 %39, ptr %41, align 8, !tbaa !22
  %42 = load i32, ptr %8, align 4, !tbaa !28
  %43 = load ptr, ptr %3, align 8, !tbaa !11
  %44 = getelementptr inbounds nuw %struct._timelib_time, ptr %43, i32 0, i32 10
  store i32 %42, ptr %44, align 8, !tbaa !23
  call void @llvm.lifetime.end.p0(i64 4, ptr %8) #3
  call void @llvm.lifetime.end.p0(i64 4, ptr %7) #3
  br label %82

45:                                               ; preds = %2
  %46 = load i64, ptr %4, align 8, !tbaa !4
  %47 = load ptr, ptr %6, align 8, !tbaa !32
  %48 = call ptr @timelib_get_time_zone_info(i64 noundef %46, ptr noundef %47)
  store ptr %48, ptr %5, align 8, !tbaa !33
  %49 = load ptr, ptr %3, align 8, !tbaa !11
  %50 = load i64, ptr %4, align 8, !tbaa !4
  %51 = load ptr, ptr %5, align 8, !tbaa !33
  %52 = getelementptr inbounds nuw %struct._timelib_time_offset, ptr %51, i32 0, i32 0
  %53 = load i32, ptr %52, align 8, !tbaa !35
  %54 = sext i32 %53 to i64
  %55 = add i64 %50, %54
  call void @timelib_unixtime2gmt(ptr noundef %49, i64 noundef %55)
  %56 = load i64, ptr %4, align 8, !tbaa !4
  %57 = load ptr, ptr %3, align 8, !tbaa !11
  %58 = getelementptr inbounds nuw %struct._timelib_time, ptr %57, i32 0, i32 12
  store i64 %56, ptr %58, align 8, !tbaa !24
  %59 = load ptr, ptr %5, align 8, !tbaa !33
  %60 = getelementptr inbounds nuw %struct._timelib_time_offset, ptr %59, i32 0, i32 2
  %61 = load i32, ptr %60, align 8, !tbaa !37
  %62 = load ptr, ptr %3, align 8, !tbaa !11
  %63 = getelementptr inbounds nuw %struct._timelib_time, ptr %62, i32 0, i32 10
  store i32 %61, ptr %63, align 8, !tbaa !23
  %64 = load ptr, ptr %5, align 8, !tbaa !33
  %65 = getelementptr inbounds nuw %struct._timelib_time_offset, ptr %64, i32 0, i32 0
  %66 = load i32, ptr %65, align 8, !tbaa !35
  %67 = load ptr, ptr %3, align 8, !tbaa !11
  %68 = getelementptr inbounds nuw %struct._timelib_time, ptr %67, i32 0, i32 7
  store i32 %66, ptr %68, align 8, !tbaa !22
  %69 = load ptr, ptr %6, align 8, !tbaa !32
  %70 = load ptr, ptr %3, align 8, !tbaa !11
  %71 = getelementptr inbounds nuw %struct._timelib_time, ptr %70, i32 0, i32 9
  store ptr %69, ptr %71, align 8, !tbaa !30
  %72 = load ptr, ptr %3, align 8, !tbaa !11
  %73 = load ptr, ptr %5, align 8, !tbaa !33
  %74 = getelementptr inbounds nuw %struct._timelib_time_offset, ptr %73, i32 0, i32 3
  %75 = load ptr, ptr %74, align 8, !tbaa !38
  call void @timelib_time_tz_abbr_update(ptr noundef %72, ptr noundef %75)
  %76 = load ptr, ptr %5, align 8, !tbaa !33
  call void @timelib_time_offset_dtor(ptr noundef %76)
  br label %82

77:                                               ; preds = %2
  %78 = load ptr, ptr %3, align 8, !tbaa !11
  %79 = getelementptr inbounds nuw %struct._timelib_time, ptr %78, i32 0, i32 20
  store i32 0, ptr %79, align 4, !tbaa !27
  %80 = load ptr, ptr %3, align 8, !tbaa !11
  %81 = getelementptr inbounds nuw %struct._timelib_time, ptr %80, i32 0, i32 15
  store i32 0, ptr %81, align 8, !tbaa !31
  store i32 1, ptr %9, align 4
  br label %87

82:                                               ; preds = %45, %16
  %83 = load ptr, ptr %3, align 8, !tbaa !11
  %84 = getelementptr inbounds nuw %struct._timelib_time, ptr %83, i32 0, i32 20
  store i32 1, ptr %84, align 4, !tbaa !27
  %85 = load ptr, ptr %3, align 8, !tbaa !11
  %86 = getelementptr inbounds nuw %struct._timelib_time, ptr %85, i32 0, i32 15
  store i32 1, ptr %86, align 8, !tbaa !31
  store i32 0, ptr %9, align 4
  br label %87

87:                                               ; preds = %82, %77
  call void @llvm.lifetime.end.p0(i64 8, ptr %6) #3
  call void @llvm.lifetime.end.p0(i64 8, ptr %5) #3
  %88 = load i32, ptr %9, align 4
  switch i32 %88, label %90 [
    i32 0, label %89
    i32 1, label %89
  ]

89:                                               ; preds = %87, %87
  ret void

90:                                               ; preds = %87
  unreachable
}