; Function Attrs: nounwind uwtable
define hidden void @timelib_unixtime2local(ptr noundef initializes((228, 232)) %0, i64 noundef %1) local_unnamed_addr #3 {
  %3 = getelementptr inbounds nuw i8, ptr %0, i64 232
  %4 = load i32, ptr %3, align 8, !tbaa !24
  switch i32 %4, label %125 [
    i32 2, label %5
    i32 1, label %5
    i32 3, label %63
  ]

5:                                                ; preds = %2, %2
  %6 = getelementptr inbounds nuw i8, ptr %0, i64 56
  %7 = load i32, ptr %6, align 8, !tbaa !18
  %8 = getelementptr inbounds nuw i8, ptr %0, i64 80
  %9 = load i32, ptr %8, align 8, !tbaa !19
  %10 = sext i32 %7 to i64
  %11 = add i64 %1, %10
  %12 = mul i32 %9, 3600
  %13 = sext i32 %12 to i64
  %14 = add i64 %11, %13
  %15 = getelementptr inbounds nuw i8, ptr %0, i64 8
  %16 = getelementptr inbounds nuw i8, ptr %0, i64 16
  %17 = sdiv i64 %14, 86400
  %18 = add nsw i64 %17, 719468
  %19 = srem i64 %14, 86400
  %.lobit.i.i = ashr i64 %19, 63
  %20 = add nsw i64 %18, %.lobit.i.i
  %21 = add nsw i64 %20, -146096
  %22 = icmp slt i64 %20, 0
  %23 = select i1 %22, i64 %21, i64 %20
  %24 = sdiv i64 %23, 146097
  %.neg.i.i = mul nsw i64 %24, -146097
  %25 = add nsw i64 %.neg.i.i, %20
  %26 = udiv i64 %25, 1460
  %27 = udiv i64 %25, 36524
  %28 = udiv i64 %25, 146096
  %.neg52 = add nsw i64 %27, %25
  %29 = add nuw nsw i64 %28, %26
  %30 = sub nsw i64 %.neg52, %29
  %31 = udiv i64 %30, 365
  %32 = mul nsw i64 %24, 400
  %33 = add nsw i64 %31, %32
  %34 = udiv i64 %30, 1460
  %35 = udiv i64 %30, 36500
  %.neg35.i.i = mul i64 %31, -365
  %.neg36.i.i = sub nsw i64 %25, %34
  %.neg28.i.i = add nsw i64 %.neg36.i.i, %35
  %36 = add i64 %.neg28.i.i, %.neg35.i.i
  %37 = mul i64 %36, 5
  %38 = add i64 %37, 2
  %39 = udiv i64 %38, 153
  %40 = mul nuw i64 %39, 153
  %41 = add nuw i64 %40, 2
  %42 = udiv i64 %41, 5
  %43 = add i64 %36, 1
  %44 = sub i64 %43, %42
  store i64 %44, ptr %16, align 8, !tbaa !4
  %45 = icmp ult i64 %38, 1530
  %46 = select i1 %45, i64 3, i64 -9
  %47 = add nsw i64 %46, %39
  store i64 %47, ptr %15, align 8, !tbaa !4
  %48 = icmp slt i64 %47, 3
  %49 = zext i1 %48 to i64
  %50 = add nsw i64 %33, %49
  store i64 %50, ptr %0, align 8, !tbaa !4
  %isneg.i = icmp slt i64 %19, 0
  %51 = select i1 %isneg.i, i64 86400, i64 0
  %52 = add nsw i64 %51, %19
  %.lhs.trunc.i = trunc nsw i64 %52 to i32
  %53 = udiv i32 %.lhs.trunc.i, 3600
  %.zext.i = zext nneg i32 %53 to i64
  %.neg.i = mul nuw nsw i64 %.zext.i, 4294963696
  %54 = add nuw nsw i64 %.neg.i, %52
  %.lhs.trunc23.i = trunc i64 %54 to i32
  %55 = sdiv i32 %.lhs.trunc23.i, 60
  %.sext.i = sext i32 %55 to i64
  %56 = urem i32 %.lhs.trunc.i, 60
  %.zext25.i = zext nneg i32 %56 to i64
  %57 = getelementptr inbounds nuw i8, ptr %0, i64 24
  store i64 %.zext.i, ptr %57, align 8, !tbaa !8
  %58 = getelementptr inbounds nuw i8, ptr %0, i64 32
  store i64 %.sext.i, ptr %58, align 8, !tbaa !16
  %59 = getelementptr inbounds nuw i8, ptr %0, i64 40
  store i64 %.zext25.i, ptr %59, align 8, !tbaa !17
  %60 = getelementptr inbounds nuw i8, ptr %0, i64 192
  %61 = getelementptr inbounds nuw i8, ptr %0, i64 220
  store i32 1, ptr %61, align 4, !tbaa !21
  %62 = getelementptr inbounds nuw i8, ptr %0, i64 224
  store i32 1, ptr %62, align 8, !tbaa !22
  store i64 %1, ptr %60, align 8, !tbaa !20
  br label %125

63:                                               ; preds = %2
  %64 = getelementptr inbounds nuw i8, ptr %0, i64 72
  %65 = load ptr, ptr %64, align 8, !tbaa !26
  %66 = tail call ptr @timelib_get_time_zone_info(i64 noundef %1, ptr noundef %65) #5
  %67 = load i32, ptr %66, align 8, !tbaa !28
  %68 = sext i32 %67 to i64
  %69 = add i64 %1, %68
  %70 = getelementptr inbounds nuw i8, ptr %0, i64 8
  %71 = getelementptr inbounds nuw i8, ptr %0, i64 16
  %72 = sdiv i64 %69, 86400
  %73 = add nsw i64 %72, 719468
  %74 = srem i64 %69, 86400
  %.lobit.i.i33 = ashr i64 %74, 63
  %75 = add nsw i64 %73, %.lobit.i.i33
  %76 = add nsw i64 %75, -146096
  %77 = icmp slt i64 %75, 0
  %78 = select i1 %77, i64 %76, i64 %75
  %79 = sdiv i64 %78, 146097
  %.neg.i.i34 = mul nsw i64 %79, -146097
  %80 = add nsw i64 %.neg.i.i34, %75
  %81 = udiv i64 %80, 1460
  %82 = udiv i64 %80, 36524
  %83 = udiv i64 %80, 146096
  %.neg47 = add nsw i64 %82, %80
  %84 = add nuw nsw i64 %83, %81
  %85 = sub nsw i64 %.neg47, %84
  %86 = udiv i64 %85, 365
  %87 = mul nsw i64 %79, 400
  %88 = add nsw i64 %86, %87
  %89 = udiv i64 %85, 1460
  %90 = udiv i64 %85, 36500
  %.neg35.i.i36 = mul i64 %86, -365
  %.neg36.i.i37 = sub nsw i64 %80, %89
  %.neg28.i.i38 = add nsw i64 %.neg36.i.i37, %90
  %91 = add i64 %.neg28.i.i38, %.neg35.i.i36
  %92 = mul i64 %91, 5
  %93 = add i64 %92, 2
  %94 = udiv i64 %93, 153
  %95 = mul nuw i64 %94, 153
  %96 = add nuw i64 %95, 2
  %97 = udiv i64 %96, 5
  %98 = add i64 %91, 1
  %99 = sub i64 %98, %97
  store i64 %99, ptr %71, align 8, !tbaa !4
  %100 = icmp ult i64 %93, 1530
  %101 = select i1 %100, i64 3, i64 -9
  %102 = add nsw i64 %101, %94
  store i64 %102, ptr %70, align 8, !tbaa !4
  %103 = icmp slt i64 %102, 3
  %104 = zext i1 %103 to i64
  %105 = add nsw i64 %88, %104
  store i64 %105, ptr %0, align 8, !tbaa !4
  %isneg.i39 = icmp slt i64 %74, 0
  %106 = select i1 %isneg.i39, i64 86400, i64 0
  %107 = add nsw i64 %106, %74
  %.lhs.trunc.i40 = trunc nsw i64 %107 to i32
  %108 = udiv i32 %.lhs.trunc.i40, 3600
  %.zext.i41 = zext nneg i32 %108 to i64
  %.neg.i42 = mul nuw nsw i64 %.zext.i41, 4294963696
  %109 = add nuw nsw i64 %.neg.i42, %107
  %.lhs.trunc23.i43 = trunc i64 %109 to i32
  %110 = sdiv i32 %.lhs.trunc23.i43, 60
  %.sext.i44 = sext i32 %110 to i64
  %111 = urem i32 %.lhs.trunc.i40, 60
  %.zext25.i45 = zext nneg i32 %111 to i64
  %112 = getelementptr inbounds nuw i8, ptr %0, i64 24
  store i64 %.zext.i41, ptr %112, align 8, !tbaa !8
  %113 = getelementptr inbounds nuw i8, ptr %0, i64 32
  store i64 %.sext.i44, ptr %113, align 8, !tbaa !16
  %114 = getelementptr inbounds nuw i8, ptr %0, i64 40
  store i64 %.zext25.i45, ptr %114, align 8, !tbaa !17
  %115 = getelementptr inbounds nuw i8, ptr %0, i64 56
  %116 = getelementptr inbounds nuw i8, ptr %0, i64 80
  %117 = getelementptr inbounds nuw i8, ptr %0, i64 192
  %118 = getelementptr inbounds nuw i8, ptr %0, i64 220
  store i32 1, ptr %118, align 4, !tbaa !21
  %119 = getelementptr inbounds nuw i8, ptr %0, i64 224
  store i32 1, ptr %119, align 8, !tbaa !22
  %120 = getelementptr inbounds nuw i8, ptr %0, i64 228
  store i32 0, ptr %120, align 4, !tbaa !23
  store i64 %1, ptr %117, align 8, !tbaa !20
  %121 = getelementptr inbounds nuw i8, ptr %66, i64 8
  %122 = load i32, ptr %121, align 8, !tbaa !30
  store i32 %122, ptr %116, align 8, !tbaa !19
  store i32 %67, ptr %115, align 8, !tbaa !18
  store ptr %65, ptr %64, align 8, !tbaa !26
  %123 = getelementptr inbounds nuw i8, ptr %66, i64 16
  %124 = load ptr, ptr %123, align 8, !tbaa !31
  tail call void @timelib_time_tz_abbr_update(ptr noundef nonnull %0, ptr noundef %124) #5
  tail call void @timelib_time_offset_dtor(ptr noundef nonnull %66) #5
  br label %125

125:                                              ; preds = %5, %63, %2
  %.sink56 = phi i32 [ 0, %2 ], [ 1, %63 ], [ 1, %5 ]
  %126 = getelementptr inbounds nuw i8, ptr %0, i64 228
  store i32 %.sink56, ptr %126, align 4, !tbaa !23
  %127 = getelementptr inbounds nuw i8, ptr %0, i64 208
  store i32 %.sink56, ptr %127, align 8, !tbaa !27
  ret void
}